target datalayout = "e-m:e-p270:32:32-p271:32:32-p272:64:64-i64:64-i128:128-f80:128-n8:16:32:64-S128"
target triple = "x86_64-pc-linux-gnu"

%struct.qtest_fault = type { ptr, %struct.quic_pkt_hdr_st, %struct.ossl_qtx_iovec_st, i64, ptr, ptr, ptr, i64, i64, ptr, ptr, ptr, ptr, ptr, ptr, ptr, ptr, %struct.bio_msg_st, i64, %struct.noise_args_data_st }
%struct.quic_pkt_hdr_st = type { i32, i32, %struct.quic_conn_id_st, %struct.quic_conn_id_st, [4 x i8], ptr, i64, i64, ptr }
%struct.quic_conn_id_st = type { i8, [20 x i8] }
%struct.ossl_qtx_iovec_st = type { ptr, i64 }
%struct.bio_msg_st = type { ptr, i64, ptr, ptr, i64 }
%struct.noise_args_data_st = type { ptr, ptr, ptr, i32 }

; Function Attrs: nounwind uwtable
define dso_local i32 @qtest_fault_resize_datagram(ptr noundef %0, i64 noundef %1) #0 {
  %3 = alloca i32, align 4
  %4 = alloca ptr, align 8
  %5 = alloca i64, align 8
  store ptr %0, ptr %4, align 8, !tbaa !33
  store i64 %1, ptr %5, align 8, !tbaa !62
  %6 = load i64, ptr %5, align 8, !tbaa !62
  %7 = load ptr, ptr %4, align 8, !tbaa !33
  %8 = getelementptr inbounds nuw %struct.qtest_fault, ptr %7, i32 0, i32 18
  %9 = load i64, ptr %8, align 8, !tbaa !136
  %10 = icmp ugt i64 %6, %9
  br i1 %10, label %11, label %12

11:                                               ; preds = %2
  store i32 0, ptr %3, align 4
  br label %40

12:                                               ; preds = %2
  %13 = load i64, ptr %5, align 8, !tbaa !62
  %14 = load ptr, ptr %4, align 8, !tbaa !33
  %15 = getelementptr inbounds nuw %struct.qtest_fault, ptr %14, i32 0, i32 17
  %16 = getelementptr inbounds nuw %struct.bio_msg_st, ptr %15, i32 0, i32 1
  %17 = load i64, ptr %16, align 8, !tbaa !134
  %18 = icmp ugt i64 %13, %17
  br i1 %18, label %19, label %35

19:                                               ; preds = %12
  %20 = load ptr, ptr %4, align 8, !tbaa !33
  %21 = getelementptr inbounds nuw %struct.qtest_fault, ptr %20, i32 0, i32 17
  %22 = getelementptr inbounds nuw %struct.bio_msg_st, ptr %21, i32 0, i32 0
  %23 = load ptr, ptr %22, align 8, !tbaa !135
  %24 = load ptr, ptr %4, align 8, !tbaa !33
  %25 = getelementptr inbounds nuw %struct.qtest_fault, ptr %24, i32 0, i32 17
  %26 = getelementptr inbounds nuw %struct.bio_msg_st, ptr %25, i32 0, i32 1
  %27 = load i64, ptr %26, align 8, !tbaa !134
  %28 = getelementptr inbounds nuw i8, ptr %23, i64 %27
  %29 = load i64, ptr %5, align 8, !tbaa !62
  %30 = load ptr, ptr %4, align 8, !tbaa !33
  %31 = getelementptr inbounds nuw %struct.qtest_fault, ptr %30, i32 0, i32 17
  %32 = getelementptr inbounds nuw %struct.bio_msg_st, ptr %31, i32 0, i32 1
  %33 = load i64, ptr %32, align 8, !tbaa !134
  %34 = sub i64 %29, %33
  call void @llvm.memset.p0.i64(ptr align 1 %28, i8 0, i64 %34, i1 false)
  br label %35

35:                                               ; preds = %19, %12
  %36 = load i64, ptr %5, align 8, !tbaa !62
  %37 = load ptr, ptr %4, align 8, !tbaa !33
  %38 = getelementptr inbounds nuw %struct.qtest_fault, ptr %37, i32 0, i32 17
  %39 = getelementptr inbounds nuw %struct.bio_msg_st, ptr %38, i32 0, i32 1
  store i64 %36, ptr %39, align 8, !tbaa !134
  store i32 1, ptr %3, align 4
  br label %40

40:                                               ; preds = %35, %11
  %41 = load i32, ptr %3, align 4
  ret i32 %41
}