; Function Attrs: mustprogress nofree norecurse nosync nounwind willreturn memory(write, argmem: readwrite, inaccessiblemem: none) uwtable
define dso_local range(i32 0, 2) i32 @qtest_fault_resize_datagram(ptr noundef captures(none) %0, i64 noundef %1) local_unnamed_addr #6 {
  %3 = getelementptr inbounds nuw i8, ptr %0, i64 264
  %4 = load i64, ptr %3, align 8, !tbaa !97
  %5 = icmp ugt i64 %1, %4
  br i1 %5, label %16, label %6

6:                                                ; preds = %2
  %7 = getelementptr inbounds nuw i8, ptr %0, i64 232
  %8 = load i64, ptr %7, align 8, !tbaa !95
  %9 = icmp ugt i64 %1, %8
  br i1 %9, label %10, label %15

10:                                               ; preds = %6
  %11 = getelementptr inbounds nuw i8, ptr %0, i64 224
  %12 = load ptr, ptr %11, align 8, !tbaa !96
  %13 = getelementptr inbounds nuw i8, ptr %12, i64 %8
  %14 = sub nuw i64 %1, %8
  tail call void @llvm.memset.p0.i64(ptr align 1 %13, i8 0, i64 %14, i1 false)
  br label %15

15:                                               ; preds = %10, %6
  store i64 %1, ptr %7, align 8, !tbaa !95
  br label %16

16:                                               ; preds = %2, %15
  %.0 = phi i32 [ 1, %15 ], [ 0, %2 ]
  ret i32 %.0
}